target datalayout = "e-m:e-p270:32:32-p271:32:32-p272:64:64-i64:64-i128:128-f80:128-n8:16:32:64-S128"
target triple = "x86_64-pc-linux-gnu"

; Function Attrs: nounwind uwtable
define internal i32 @divide_using_multiply_shift(i32 noundef %0, i32 noundef %1, i32 noundef %2, i32 noundef %3) #0 {
  %5 = alloca i32, align 4
  %6 = alloca i32, align 4
  %7 = alloca i32, align 4
  %8 = alloca i32, align 4
  %9 = alloca i32, align 4
  store i32 %0, ptr %5, align 4
  store i32 %1, ptr %6, align 4
  store i32 %2, ptr %7, align 4
  store i32 %3, ptr %8, align 4
  %10 = load i32, ptr %5, align 4
  %11 = load i32, ptr %6, align 4
  %12 = ashr i32 %10, %11
  store i32 %12, ptr %9, align 4
  %13 = load i32, ptr %9, align 4
  %14 = load i32, ptr %7, align 4
  %15 = mul nsw i32 %13, %14
  %16 = load i32, ptr %8, align 4
  %17 = ashr i32 %15, %16
  ret i32 %17
}

; Function Attrs: nounwind uwtable
define internal void @highbd_dc_predictor_rect(ptr noundef %0, i64 noundef %1, i32 noundef %2, i32 noundef %3, ptr noundef %4, ptr noundef %5, i32 noundef %6, i32 noundef %7, i32 noundef %8) #0 {
  %10 = alloca ptr, align 8
  %11 = alloca i64, align 8
  %12 = alloca i32, align 4
  %13 = alloca i32, align 4
  %14 = alloca ptr, align 8
  %15 = alloca ptr, align 8
  %16 = alloca i32, align 4
  %17 = alloca i32, align 4
  %18 = alloca i32, align 4
  %19 = alloca i32, align 4
  %20 = alloca i32, align 4
  %21 = alloca i32, align 4
  %22 = alloca i32, align 4
  %23 = alloca i32, align 4
  store ptr %0, ptr %10, align 8
  store i64 %1, ptr %11, align 8
  store i32 %2, ptr %12, align 4
  store i32 %3, ptr %13, align 4
  store ptr %4, ptr %14, align 8
  store ptr %5, ptr %15, align 8
  store i32 %6, ptr %16, align 4
  store i32 %7, ptr %17, align 4
  store i32 %8, ptr %18, align 4
  store i32 0, ptr %19, align 4
  store i32 0, ptr %20, align 4
  br label %24

24:                                               ; preds = %37, %9
  %25 = load i32, ptr %20, align 4
  %26 = load i32, ptr %12, align 4
  %27 = icmp slt i32 %25, %26
  br i1 %27, label %28, label %40

28:                                               ; preds = %24
  %29 = load ptr, ptr %14, align 8
  %30 = load i32, ptr %20, align 4
  %31 = sext i32 %30 to i64
  %32 = getelementptr inbounds i16, ptr %29, i64 %31
  %33 = load i16, ptr %32, align 2
  %34 = zext i16 %33 to i32
  %35 = load i32, ptr %19, align 4
  %36 = add nsw i32 %35, %34
  store i32 %36, ptr %19, align 4
  br label %37

37:                                               ; preds = %28
  %38 = load i32, ptr %20, align 4
  %39 = add nsw i32 %38, 1
  store i32 %39, ptr %20, align 4
  br label %24, !llvm.loop !8

40:                                               ; preds = %24
  store i32 0, ptr %21, align 4
  br label %41

41:                                               ; preds = %54, %40
  %42 = load i32, ptr %21, align 4
  %43 = load i32, ptr %13, align 4
  %44 = icmp slt i32 %42, %43
  br i1 %44, label %45, label %57

45:                                               ; preds = %41
  %46 = load ptr, ptr %15, align 8
  %47 = load i32, ptr %21, align 4
  %48 = sext i32 %47 to i64
  %49 = getelementptr inbounds i16, ptr %46, i64 %48
  %50 = load i16, ptr %49, align 2
  %51 = zext i16 %50 to i32
  %52 = load i32, ptr %19, align 4
  %53 = add nsw i32 %52, %51
  store i32 %53, ptr %19, align 4
  br label %54

54:                                               ; preds = %45
  %55 = load i32, ptr %21, align 4
  %56 = add nsw i32 %55, 1
  store i32 %56, ptr %21, align 4
  br label %41, !llvm.loop !9

57:                                               ; preds = %41
  %58 = load i32, ptr %19, align 4
  %59 = load i32, ptr %12, align 4
  %60 = load i32, ptr %13, align 4
  %61 = add nsw i32 %59, %60
  %62 = ashr i32 %61, 1
  %63 = add nsw i32 %58, %62
  %64 = load i32, ptr %17, align 4
  %65 = load i32, ptr %18, align 4
  %66 = call i32 @divide_using_multiply_shift(i32 noundef %63, i32 noundef %64, i32 noundef %65, i32 noundef 17)
  store i32 %66, ptr %22, align 4
  store i32 0, ptr %23, align 4
  br label %67

67:                                               ; preds = %80, %57
  %68 = load i32, ptr %23, align 4
  %69 = load i32, ptr %13, align 4
  %70 = icmp slt i32 %68, %69
  br i1 %70, label %71, label %83

71:                                               ; preds = %67
  %72 = load ptr, ptr %10, align 8
  %73 = load i32, ptr %22, align 4
  %74 = load i32, ptr %12, align 4
  %75 = sext i32 %74 to i64
  %76 = call ptr @aom_memset16(ptr noundef %72, i32 noundef %73, i64 noundef %75)
  %77 = load i64, ptr %11, align 8
  %78 = load ptr, ptr %10, align 8
  %79 = getelementptr inbounds i16, ptr %78, i64 %77
  store ptr %79, ptr %10, align 8
  br label %80

80:                                               ; preds = %71
  %81 = load i32, ptr %23, align 4
  %82 = add nsw i32 %81, 1
  store i32 %82, ptr %23, align 4
  br label %67, !llvm.loop !10

83:                                               ; preds = %67
  ret void
}

; Function Attrs: nounwind uwtable
define hidden void @aom_highbd_dc_predictor_16x8_c(ptr noundef %0, i64 noundef %1, ptr noundef %2, ptr noundef %3, i32 noundef %4) #0 {
  %6 = alloca ptr, align 8
  %7 = alloca i64, align 8
  %8 = alloca ptr, align 8
  %9 = alloca ptr, align 8
  %10 = alloca i32, align 4
  store ptr %0, ptr %6, align 8
  store i64 %1, ptr %7, align 8
  store ptr %2, ptr %8, align 8
  store ptr %3, ptr %9, align 8
  store i32 %4, ptr %10, align 4
  %11 = load ptr, ptr %6, align 8
  %12 = load i64, ptr %7, align 8
  %13 = load ptr, ptr %8, align 8
  %14 = load ptr, ptr %9, align 8
  %15 = load i32, ptr %10, align 4
  call void @highbd_dc_predictor_rect(ptr noundef %11, i64 noundef %12, i32 noundef 16, i32 noundef 8, ptr noundef %13, ptr noundef %14, i32 noundef %15, i32 noundef 3, i32 noundef 43691)
  ret void
}